ARM GAS  C:\Users\stryk\AppData\Local\Temp\cc9Kngvf.s 			page 1


   1              		.cpu cortex-m4
   2              		.arch armv7e-m
   3              		.fpu fpv4-sp-d16
   4              		.eabi_attribute 27, 1
   5              		.eabi_attribute 28, 1
   6              		.eabi_attribute 20, 1
   7              		.eabi_attribute 21, 1
   8              		.eabi_attribute 23, 3
   9              		.eabi_attribute 24, 1
  10              		.eabi_attribute 25, 1
  11              		.eabi_attribute 26, 1
  12              		.eabi_attribute 30, 6
  13              		.eabi_attribute 34, 1
  14              		.eabi_attribute 18, 4
  15              		.file	"main.c"
  16              		.text
  17              	.Ltext0:
  18              		.cfi_sections	.debug_frame
  19              		.global	buffer
  20              		.section	.bss.buffer,"aw",%nobits
  21              		.align	2
  24              	buffer:
  25 0000 00000000 		.space	255
  25      00000000 
  25      00000000 
  25      00000000 
  25      00000000 
  26              		.global	gUSB
  27              		.section	.bss.gUSB,"aw",%nobits
  28              		.align	2
  31              	gUSB:
  32 0000 00000000 		.space	255
  32      00000000 
  32      00000000 
  32      00000000 
  32      00000000 
  33              		.global	hadc1
  34              		.section	.bss.hadc1,"aw",%nobits
  35              		.align	2
  38              	hadc1:
  39 0000 00000000 		.space	72
  39      00000000 
  39      00000000 
  39      00000000 
  39      00000000 
  40              		.global	htim2
  41              		.section	.bss.htim2,"aw",%nobits
  42              		.align	2
  45              	htim2:
  46 0000 00000000 		.space	72
  46      00000000 
  46      00000000 
  46      00000000 
  46      00000000 
  47              		.global	porcentagem
  48              		.section	.data.porcentagem,"aw"
  49              		.align	2
ARM GAS  C:\Users\stryk\AppData\Local\Temp\cc9Kngvf.s 			page 2


  52              	porcentagem:
  53 0000 CDCCCC3D 		.word	1036831949
  54              		.global	minread
  55              		.section	.data.minread,"aw"
  58              	minread:
  59 0000 14       		.byte	20
  60              		.global	maxread
  61              		.section	.data.maxread,"aw"
  64              	maxread:
  65 0000 E0       		.byte	-32
  66              		.global	range
  67              		.section	.data.range,"aw"
  70              	range:
  71 0000 CC       		.byte	-52
  72              		.global	dutyCycle
  73              		.section	.data.dutyCycle,"aw"
  74              		.align	2
  77              	dutyCycle:
  78 0000 00004842 		.word	1112014848
  79              		.section	.rodata
  80              		.align	2
  81              	.LC0:
  82 0000 44696769 		.ascii	"Digite um comando:\015\012\000"
  82      74652075 
  82      6D20636F 
  82      6D616E64 
  82      6F3A0D0A 
  83 0015 000000   		.align	2
  84              	.LC1:
  85 0018 41756D65 		.ascii	"Aumento do pwm em 6.25%%, Duty Cyle atual em %d\015"
  85      6E746F20 
  85      646F2070 
  85      776D2065 
  85      6D20362E 
  86 0048 0A00     		.ascii	"\012\000"
  87 004a 0000     		.align	2
  88              	.LC2:
  89 004c 52656475 		.ascii	"Reducao do pwm em 6.25%%, Duty Cycle atual em %d\015"
  89      63616F20 
  89      646F2070 
  89      776D2065 
  89      6D20362E 
  90 007d 0A00     		.ascii	"\012\000"
  91 007f 00       		.align	2
  92              	.LC3:
  93 0080 4E616F20 		.ascii	"Nao entendir\015\012\000"
  93      656E7465 
  93      6E646972 
  93      0D0A00
  94              		.section	.text.main,"ax",%progbits
  95              		.align	1
  96              		.global	main
  97              		.syntax unified
  98              		.thumb
  99              		.thumb_func
 101              	main:
 102              	.LFB220:
ARM GAS  C:\Users\stryk\AppData\Local\Temp\cc9Kngvf.s 			page 3


 103              		.file 1 "Core/Src/main.c"
   1:Core/Src/main.c **** #include "main.h"
   2:Core/Src/main.c **** #include "usb_device.h"
   3:Core/Src/main.c **** uint8_t buffer[255];
   4:Core/Src/main.c **** uint8_t gUSB[255];
   5:Core/Src/main.c **** ADC_HandleTypeDef hadc1;
   6:Core/Src/main.c **** TIM_HandleTypeDef htim2;
   7:Core/Src/main.c **** float porcentagem = 0.10f;
   8:Core/Src/main.c **** uint8_t minread = 20;
   9:Core/Src/main.c **** uint8_t maxread = 3296;
  10:Core/Src/main.c **** uint8_t range = 3276;
  11:Core/Src/main.c **** float dutyCycle = 50.0f;
  12:Core/Src/main.c **** void SystemClock_Config(void);
  13:Core/Src/main.c **** static void MX_GPIO_Init(void);
  14:Core/Src/main.c **** static void MX_TIM2_Init(void);
  15:Core/Src/main.c **** static void MX_ADC1_Init(void);
  16:Core/Src/main.c **** 
  17:Core/Src/main.c **** int main(void)
  18:Core/Src/main.c **** {
 104              		.loc 1 18 1
 105              		.cfi_startproc
 106              		@ args = 0, pretend = 0, frame = 8
 107              		@ frame_needed = 1, uses_anonymous_args = 0
 108 0000 80B5     		push	{r7, lr}
 109              	.LCFI0:
 110              		.cfi_def_cfa_offset 8
 111              		.cfi_offset 7, -8
 112              		.cfi_offset 14, -4
 113 0002 82B0     		sub	sp, sp, #8
 114              	.LCFI1:
 115              		.cfi_def_cfa_offset 16
 116 0004 00AF     		add	r7, sp, #0
 117              	.LCFI2:
 118              		.cfi_def_cfa_register 7
  19:Core/Src/main.c ****   int read;
  20:Core/Src/main.c ****   int32_t count = 0;
 119              		.loc 1 20 11
 120 0006 0023     		movs	r3, #0
 121 0008 7B60     		str	r3, [r7, #4]
  21:Core/Src/main.c ****  
  22:Core/Src/main.c ****   HAL_Init();
 122              		.loc 1 22 3
 123 000a FFF7FEFF 		bl	HAL_Init
  23:Core/Src/main.c ****   SystemClock_Config();
 124              		.loc 1 23 3
 125 000e FFF7FEFF 		bl	SystemClock_Config
  24:Core/Src/main.c ****   MX_GPIO_Init();
 126              		.loc 1 24 3
 127 0012 FFF7FEFF 		bl	MX_GPIO_Init
  25:Core/Src/main.c ****   MX_TIM2_Init();
 128              		.loc 1 25 3
 129 0016 FFF7FEFF 		bl	MX_TIM2_Init
  26:Core/Src/main.c ****   MX_ADC1_Init();
 130              		.loc 1 26 3
 131 001a FFF7FEFF 		bl	MX_ADC1_Init
  27:Core/Src/main.c ****   HAL_TIM_PWM_Start(&htim2, TIM_CHANNEL_1);
 132              		.loc 1 27 3
ARM GAS  C:\Users\stryk\AppData\Local\Temp\cc9Kngvf.s 			page 4


 133 001e 0021     		movs	r1, #0
 134 0020 5C48     		ldr	r0, .L15
 135 0022 FFF7FEFF 		bl	HAL_TIM_PWM_Start
  28:Core/Src/main.c ****   MX_USB_DEVICE_Init();
 136              		.loc 1 28 3
 137 0026 FFF7FEFF 		bl	MX_USB_DEVICE_Init
  29:Core/Src/main.c ****   //Mensagem inicial
  30:Core/Src/main.c ****   sprintf(buffer, "Digite um comando:\r\n");
 138              		.loc 1 30 3
 139 002a 5B49     		ldr	r1, .L15+4
 140 002c 5B48     		ldr	r0, .L15+8
 141 002e FFF7FEFF 		bl	sprintf
  31:Core/Src/main.c ****   CDC_Transmit_FS(buffer,strlen(buffer));
 142              		.loc 1 31 3
 143 0032 5A48     		ldr	r0, .L15+8
 144 0034 FFF7FEFF 		bl	strlen
 145 0038 0346     		mov	r3, r0
 146 003a 1946     		mov	r1, r3
 147 003c 5748     		ldr	r0, .L15+8
 148 003e FFF7FEFF 		bl	CDC_Transmit_FS
 149              	.L12:
  32:Core/Src/main.c **** 
  33:Core/Src/main.c ****   //main loop
  34:Core/Src/main.c ****   while (1)
  35:Core/Src/main.c ****   {
  36:Core/Src/main.c ****     HAL_ADC_Start(&hadc1);
 150              		.loc 1 36 5
 151 0042 5748     		ldr	r0, .L15+12
 152 0044 FFF7FEFF 		bl	HAL_ADC_Start
  37:Core/Src/main.c ****     HAL_ADC_PollForConversion(&hadc1,100);
 153              		.loc 1 37 5
 154 0048 6421     		movs	r1, #100
 155 004a 5548     		ldr	r0, .L15+12
 156 004c FFF7FEFF 		bl	HAL_ADC_PollForConversion
  38:Core/Src/main.c ****     read = HAL_ADC_GetValue(&hadc1);
 157              		.loc 1 38 12
 158 0050 5348     		ldr	r0, .L15+12
 159 0052 FFF7FEFF 		bl	HAL_ADC_GetValue
 160 0056 0346     		mov	r3, r0
 161              		.loc 1 38 10
 162 0058 3B60     		str	r3, [r7]
  39:Core/Src/main.c ****    /*
  40:Core/Src/main.c ****     if (count >= 50)
  41:Core/Src/main.c ****     {
  42:Core/Src/main.c ****       sprintf(buffer, "Tesao no pino adc %d mV\r\n", (read*3300/4095));
  43:Core/Src/main.c ****       CDC_Transmit_FS(buffer,strlen(buffer));
  44:Core/Src/main.c ****       count = 0;
  45:Core/Src/main.c ****     }
  46:Core/Src/main.c ****     count++;
  47:Core/Src/main.c ****   */
  48:Core/Src/main.c ****     HAL_Delay(10);
 163              		.loc 1 48 5
 164 005a 0A20     		movs	r0, #10
 165 005c FFF7FEFF 		bl	HAL_Delay
  49:Core/Src/main.c ****     if (gUSB[0]!=0)
 166              		.loc 1 49 13
 167 0060 504B     		ldr	r3, .L15+16
ARM GAS  C:\Users\stryk\AppData\Local\Temp\cc9Kngvf.s 			page 5


 168 0062 1B78     		ldrb	r3, [r3]	@ zero_extendqisi2
 169              		.loc 1 49 8
 170 0064 002B     		cmp	r3, #0
 171 0066 ECD0     		beq	.L12
  50:Core/Src/main.c ****     {
  51:Core/Src/main.c ****       switch(gUSB[0])
 172              		.loc 1 51 18
 173 0068 4E4B     		ldr	r3, .L15+16
 174 006a 1B78     		ldrb	r3, [r3]	@ zero_extendqisi2
 175              		.loc 1 51 7
 176 006c 732B     		cmp	r3, #115
 177 006e 11D0     		beq	.L3
 178 0070 732B     		cmp	r3, #115
 179 0072 64DC     		bgt	.L4
 180 0074 642B     		cmp	r3, #100
 181 0076 38D0     		beq	.L5
 182 0078 642B     		cmp	r3, #100
 183 007a 60DC     		bgt	.L4
 184 007c 252B     		cmp	r3, #37
 185 007e 05D0     		beq	.L6
 186 0080 502B     		cmp	r3, #80
 187 0082 5CD1     		bne	.L4
 188              	.LBB4:
  52:Core/Src/main.c ****       {
  53:Core/Src/main.c ****         case 80:
  54:Core/Src/main.c ****         {
  55:Core/Src/main.c ****           readPin(read);
 189              		.loc 1 55 11
 190 0084 3868     		ldr	r0, [r7]
 191 0086 FFF7FEFF 		bl	readPin
  56:Core/Src/main.c ****           break;
 192              		.loc 1 56 11
 193 008a 65E0     		b	.L7
 194              	.L6:
 195              	.LBE4:
 196              	.LBB5:
  57:Core/Src/main.c ****         }
  58:Core/Src/main.c ****         case 37:
  59:Core/Src/main.c ****         {
  60:Core/Src/main.c ****           readPin(read);
 197              		.loc 1 60 11
 198 008c 3868     		ldr	r0, [r7]
 199 008e FFF7FEFF 		bl	readPin
  61:Core/Src/main.c ****           break;
 200              		.loc 1 61 11
 201 0092 61E0     		b	.L7
 202              	.L3:
 203              	.LBE5:
  62:Core/Src/main.c ****         }
  63:Core/Src/main.c ****         case 115:
  64:Core/Src/main.c ****         {
  65:Core/Src/main.c ****             dutyCycle += 6.25f;
 204              		.loc 1 65 23
 205 0094 444B     		ldr	r3, .L15+20
 206 0096 D3ED007A 		vldr.32	s15, [r3]
 207 009a B1EE097A 		vmov.f32	s14, #6.25e+0
 208 009e 77EE877A 		vadd.f32	s15, s15, s14
ARM GAS  C:\Users\stryk\AppData\Local\Temp\cc9Kngvf.s 			page 6


 209 00a2 414B     		ldr	r3, .L15+20
 210 00a4 C3ED007A 		vstr.32	s15, [r3]
  66:Core/Src/main.c ****             if (dutyCycle > 100.0f)
 211              		.loc 1 66 27
 212 00a8 3F4B     		ldr	r3, .L15+20
 213 00aa D3ED007A 		vldr.32	s15, [r3]
 214              		.loc 1 66 16
 215 00ae 9FED3F7A 		vldr.32	s14, .L15+24
 216 00b2 F4EEC77A 		vcmpe.f32	s15, s14
 217 00b6 F1EE10FA 		vmrs	APSR_nzcv, FPSCR
 218 00ba 02DD     		ble	.L8
  67:Core/Src/main.c ****                 dutyCycle = 100.0f; // Limita a 100%
 219              		.loc 1 67 27
 220 00bc 3A4B     		ldr	r3, .L15+20
 221 00be 3C4A     		ldr	r2, .L15+28
 222 00c0 1A60     		str	r2, [r3]	@ float
 223              	.L8:
  68:Core/Src/main.c ****            sprintf(buffer, "Aumento do pwm em 6.25%%, Duty Cyle atual em %d\r\n",(int)dutyCycle);
 224              		.loc 1 68 12
 225 00c2 394B     		ldr	r3, .L15+20
 226 00c4 D3ED007A 		vldr.32	s15, [r3]
 227 00c8 FDEEE77A 		vcvt.s32.f32	s15, s15
 228 00cc 17EE902A 		vmov	r2, s15	@ int
 229 00d0 3849     		ldr	r1, .L15+32
 230 00d2 3248     		ldr	r0, .L15+8
 231 00d4 FFF7FEFF 		bl	sprintf
  69:Core/Src/main.c ****            CDC_Transmit_FS(buffer,strlen(buffer));
 232              		.loc 1 69 12
 233 00d8 3048     		ldr	r0, .L15+8
 234 00da FFF7FEFF 		bl	strlen
 235 00de 0346     		mov	r3, r0
 236 00e0 1946     		mov	r1, r3
 237 00e2 2E48     		ldr	r0, .L15+8
 238 00e4 FFF7FEFF 		bl	CDC_Transmit_FS
  70:Core/Src/main.c ****            break;
 239              		.loc 1 70 12
 240 00e8 36E0     		b	.L7
 241              	.L5:
  71:Core/Src/main.c ****         }
  72:Core/Src/main.c ****         case 100:
  73:Core/Src/main.c ****         {
  74:Core/Src/main.c ****           dutyCycle -= 6.25f;
 242              		.loc 1 74 21
 243 00ea 2F4B     		ldr	r3, .L15+20
 244 00ec D3ED007A 		vldr.32	s15, [r3]
 245 00f0 B1EE097A 		vmov.f32	s14, #6.25e+0
 246 00f4 77EEC77A 		vsub.f32	s15, s15, s14
 247 00f8 2B4B     		ldr	r3, .L15+20
 248 00fa C3ED007A 		vstr.32	s15, [r3]
  75:Core/Src/main.c ****           if (dutyCycle < 0.0f)
 249              		.loc 1 75 25
 250 00fe 2A4B     		ldr	r3, .L15+20
 251 0100 D3ED007A 		vldr.32	s15, [r3]
 252              		.loc 1 75 14
 253 0104 F5EEC07A 		vcmpe.f32	s15, #0
 254 0108 F1EE10FA 		vmrs	APSR_nzcv, FPSCR
 255 010c 03D5     		bpl	.L10
ARM GAS  C:\Users\stryk\AppData\Local\Temp\cc9Kngvf.s 			page 7


  76:Core/Src/main.c ****             dutyCycle = 0.0f;
 256              		.loc 1 76 23
 257 010e 264B     		ldr	r3, .L15+20
 258 0110 4FF00002 		mov	r2, #0
 259 0114 1A60     		str	r2, [r3]	@ float
 260              	.L10:
  77:Core/Src/main.c ****            sprintf(buffer, "Reducao do pwm em 6.25%%, Duty Cycle atual em %d\r\n",(int)dutyCycle);
 261              		.loc 1 77 12
 262 0116 244B     		ldr	r3, .L15+20
 263 0118 D3ED007A 		vldr.32	s15, [r3]
 264 011c FDEEE77A 		vcvt.s32.f32	s15, s15
 265 0120 17EE902A 		vmov	r2, s15	@ int
 266 0124 2449     		ldr	r1, .L15+36
 267 0126 1D48     		ldr	r0, .L15+8
 268 0128 FFF7FEFF 		bl	sprintf
  78:Core/Src/main.c ****            CDC_Transmit_FS(buffer,strlen(buffer));
 269              		.loc 1 78 12
 270 012c 1B48     		ldr	r0, .L15+8
 271 012e FFF7FEFF 		bl	strlen
 272 0132 0346     		mov	r3, r0
 273 0134 1946     		mov	r1, r3
 274 0136 1948     		ldr	r0, .L15+8
 275 0138 FFF7FEFF 		bl	CDC_Transmit_FS
  79:Core/Src/main.c ****            break;
 276              		.loc 1 79 12
 277 013c 0CE0     		b	.L7
 278              	.L4:
  80:Core/Src/main.c ****         }
  81:Core/Src/main.c ****         default:
  82:Core/Src/main.c ****         {
  83:Core/Src/main.c ****           sprintf(buffer, "Nao entendir\r\n");
 279              		.loc 1 83 11
 280 013e 1F49     		ldr	r1, .L15+40
 281 0140 1648     		ldr	r0, .L15+8
 282 0142 FFF7FEFF 		bl	sprintf
  84:Core/Src/main.c ****           CDC_Transmit_FS(buffer,strlen(buffer));
 283              		.loc 1 84 11
 284 0146 1548     		ldr	r0, .L15+8
 285 0148 FFF7FEFF 		bl	strlen
 286 014c 0346     		mov	r3, r0
 287 014e 1946     		mov	r1, r3
 288 0150 1248     		ldr	r0, .L15+8
 289 0152 FFF7FEFF 		bl	CDC_Transmit_FS
  85:Core/Src/main.c ****           break;
 290              		.loc 1 85 11
 291 0156 00BF     		nop
 292              	.L7:
  86:Core/Src/main.c ****         }
  87:Core/Src/main.c ****       }
  88:Core/Src/main.c ****       __HAL_TIM_SET_COMPARE(&htim2, TIM_CHANNEL_1, (uint32_t)((dutyCycle / 100.0f) * __HAL_TIM_GET_
 293              		.loc 1 88 7
 294 0158 134B     		ldr	r3, .L15+20
 295 015a D3ED007A 		vldr.32	s15, [r3]
 296 015e DFED136A 		vldr.32	s13, .L15+24
 297 0162 87EEA67A 		vdiv.f32	s14, s15, s13
 298 0166 0B4B     		ldr	r3, .L15
 299 0168 1B68     		ldr	r3, [r3]
ARM GAS  C:\Users\stryk\AppData\Local\Temp\cc9Kngvf.s 			page 8


 300 016a DB6A     		ldr	r3, [r3, #44]
 301 016c 07EE903A 		vmov	s15, r3	@ int
 302 0170 F8EE677A 		vcvt.f32.u32	s15, s15
 303 0174 67EE277A 		vmul.f32	s15, s14, s15
 304 0178 064B     		ldr	r3, .L15
 305 017a 1B68     		ldr	r3, [r3]
 306 017c FCEEE77A 		vcvt.u32.f32	s15, s15
 307 0180 17EE902A 		vmov	r2, s15	@ int
 308 0184 5A63     		str	r2, [r3, #52]
  89:Core/Src/main.c ****       memset(gUSB,0,255);
 309              		.loc 1 89 7
 310 0186 FF22     		movs	r2, #255
 311 0188 0021     		movs	r1, #0
 312 018a 0648     		ldr	r0, .L15+16
 313 018c FFF7FEFF 		bl	memset
  36:Core/Src/main.c ****     HAL_ADC_PollForConversion(&hadc1,100);
 314              		.loc 1 36 5
 315 0190 57E7     		b	.L12
 316              	.L16:
 317 0192 00BF     		.align	2
 318              	.L15:
 319 0194 00000000 		.word	htim2
 320 0198 00000000 		.word	.LC0
 321 019c 00000000 		.word	buffer
 322 01a0 00000000 		.word	hadc1
 323 01a4 00000000 		.word	gUSB
 324 01a8 00000000 		.word	dutyCycle
 325 01ac 0000C842 		.word	1120403456
 326 01b0 0000C842 		.word	1120403456
 327 01b4 18000000 		.word	.LC1
 328 01b8 4C000000 		.word	.LC2
 329 01bc 80000000 		.word	.LC3
 330              		.cfi_endproc
 331              	.LFE220:
 333              		.global	__aeabi_i2d
 334              		.global	__aeabi_dmul
 335              		.global	__aeabi_d2f
 336              		.section	.rodata
 337 008f 00       		.align	2
 338              	.LC4:
 339 0090 4F207065 		.ascii	"O percentual do fundo de escala A/D e %d.%d, repres"
 339      7263656E 
 339      7475616C 
 339      20646F20 
 339      66756E64 
 340 00c3 656E7461 		.ascii	"entando uma tensao de %d mV \015\012\000"
 340      6E646F20 
 340      756D6120 
 340      74656E73 
 340      616F2064 
 341              		.section	.text.readPin,"ax",%progbits
 342              		.align	1
 343              		.global	readPin
 344              		.syntax unified
 345              		.thumb
 346              		.thumb_func
 348              	readPin:
ARM GAS  C:\Users\stryk\AppData\Local\Temp\cc9Kngvf.s 			page 9


 349              	.LFB221:
  90:Core/Src/main.c ****     }
  91:Core/Src/main.c ****   }
  92:Core/Src/main.c ****   //fim main loop
  93:Core/Src/main.c **** }
  94:Core/Src/main.c **** 
  95:Core/Src/main.c **** 
  96:Core/Src/main.c **** int readPin(int valorLido) {
 350              		.loc 1 96 28
 351              		.cfi_startproc
 352              		@ args = 0, pretend = 0, frame = 16
 353              		@ frame_needed = 1, uses_anonymous_args = 0
 354 0000 80B5     		push	{r7, lr}
 355              	.LCFI3:
 356              		.cfi_def_cfa_offset 8
 357              		.cfi_offset 7, -8
 358              		.cfi_offset 14, -4
 359 0002 86B0     		sub	sp, sp, #24
 360              	.LCFI4:
 361              		.cfi_def_cfa_offset 32
 362 0004 02AF     		add	r7, sp, #8
 363              	.LCFI5:
 364              		.cfi_def_cfa 7, 24
 365 0006 7860     		str	r0, [r7, #4]
  97:Core/Src/main.c **** 
  98:Core/Src/main.c ****     // Calculando a porcentagem
  99:Core/Src/main.c ****     porcentagem = (valorLido-minread)*0.030525;
 366              		.loc 1 99 29
 367 0008 254B     		ldr	r3, .L18+8
 368 000a 1B78     		ldrb	r3, [r3]	@ zero_extendqisi2
 369 000c 1A46     		mov	r2, r3
 370 000e 7B68     		ldr	r3, [r7, #4]
 371 0010 9B1A     		subs	r3, r3, r2
 372              		.loc 1 99 38
 373 0012 1846     		mov	r0, r3
 374 0014 FFF7FEFF 		bl	__aeabi_i2d
 375 0018 1FA3     		adr	r3, .L18
 376 001a D3E90023 		ldrd	r2, [r3]
 377 001e FFF7FEFF 		bl	__aeabi_dmul
 378 0022 0246     		mov	r2, r0
 379 0024 0B46     		mov	r3, r1
 380 0026 1046     		mov	r0, r2
 381 0028 1946     		mov	r1, r3
 382 002a FFF7FEFF 		bl	__aeabi_d2f
 383 002e 0346     		mov	r3, r0	@ float
 384              		.loc 1 99 17
 385 0030 1C4A     		ldr	r2, .L18+12
 386 0032 1360     		str	r3, [r2]	@ float
 100:Core/Src/main.c **** 
 101:Core/Src/main.c ****     // Separando a parte inteira e a parte decimal
 102:Core/Src/main.c ****     int parteInteira = (int)porcentagem;
 387              		.loc 1 102 24
 388 0034 1B4B     		ldr	r3, .L18+12
 389 0036 D3ED007A 		vldr.32	s15, [r3]
 390              		.loc 1 102 9
 391 003a FDEEE77A 		vcvt.s32.f32	s15, s15
 392 003e 17EE903A 		vmov	r3, s15	@ int
ARM GAS  C:\Users\stryk\AppData\Local\Temp\cc9Kngvf.s 			page 10


 393 0042 FB60     		str	r3, [r7, #12]
 103:Core/Src/main.c ****     int parteDecimal = ((porcentagem - parteInteira) * 100);
 394              		.loc 1 103 38
 395 0044 174B     		ldr	r3, .L18+12
 396 0046 93ED007A 		vldr.32	s14, [r3]
 397 004a FB68     		ldr	r3, [r7, #12]
 398 004c 07EE903A 		vmov	s15, r3	@ int
 399 0050 F8EEE77A 		vcvt.f32.s32	s15, s15
 400 0054 77EE677A 		vsub.f32	s15, s14, s15
 401              		.loc 1 103 54
 402 0058 9FED137A 		vldr.32	s14, .L18+16
 403 005c 67EE877A 		vmul.f32	s15, s15, s14
 404              		.loc 1 103 9
 405 0060 FDEEE77A 		vcvt.s32.f32	s15, s15
 406 0064 17EE903A 		vmov	r3, s15	@ int
 407 0068 BB60     		str	r3, [r7, #8]
 104:Core/Src/main.c **** 
 105:Core/Src/main.c ****     // Imprimindo a porcentagem usando printf
 106:Core/Src/main.c ****     sprintf(buffer, "O percentual do fundo de escala A/D e %d.%d, representando uma tensao de %d mV
 408              		.loc 1 106 5
 409 006a 7B68     		ldr	r3, [r7, #4]
 410 006c 0093     		str	r3, [sp]
 411 006e BB68     		ldr	r3, [r7, #8]
 412 0070 FA68     		ldr	r2, [r7, #12]
 413 0072 0E49     		ldr	r1, .L18+20
 414 0074 0E48     		ldr	r0, .L18+24
 415 0076 FFF7FEFF 		bl	sprintf
 107:Core/Src/main.c ****     CDC_Transmit_FS(buffer,strlen(buffer));
 416              		.loc 1 107 5
 417 007a 0D48     		ldr	r0, .L18+24
 418 007c FFF7FEFF 		bl	strlen
 419 0080 0346     		mov	r3, r0
 420 0082 1946     		mov	r1, r3
 421 0084 0A48     		ldr	r0, .L18+24
 422 0086 FFF7FEFF 		bl	CDC_Transmit_FS
 108:Core/Src/main.c **** }
 423              		.loc 1 108 1
 424 008a 00BF     		nop
 425 008c 1846     		mov	r0, r3
 426 008e 1037     		adds	r7, r7, #16
 427              	.LCFI6:
 428              		.cfi_def_cfa_offset 8
 429 0090 BD46     		mov	sp, r7
 430              	.LCFI7:
 431              		.cfi_def_cfa_register 13
 432              		@ sp needed
 433 0092 80BD     		pop	{r7, pc}
 434              	.L19:
 435 0094 AFF30080 		.align	3
 436              	.L18:
 437 0098 1973D712 		.word	316109593
 438 009c F2419F3F 		.word	1067401714
 439 00a0 00000000 		.word	minread
 440 00a4 00000000 		.word	porcentagem
 441 00a8 0000C842 		.word	1120403456
 442 00ac 90000000 		.word	.LC4
 443 00b0 00000000 		.word	buffer
ARM GAS  C:\Users\stryk\AppData\Local\Temp\cc9Kngvf.s 			page 11


 444              		.cfi_endproc
 445              	.LFE221:
 447              		.section	.text.SystemClock_Config,"ax",%progbits
 448              		.align	1
 449              		.global	SystemClock_Config
 450              		.syntax unified
 451              		.thumb
 452              		.thumb_func
 454              	SystemClock_Config:
 455              	.LFB222:
 109:Core/Src/main.c **** 
 110:Core/Src/main.c **** void SystemClock_Config(void)
 111:Core/Src/main.c **** {
 456              		.loc 1 111 1
 457              		.cfi_startproc
 458              		@ args = 0, pretend = 0, frame = 80
 459              		@ frame_needed = 1, uses_anonymous_args = 0
 460 0000 80B5     		push	{r7, lr}
 461              	.LCFI8:
 462              		.cfi_def_cfa_offset 8
 463              		.cfi_offset 7, -8
 464              		.cfi_offset 14, -4
 465 0002 94B0     		sub	sp, sp, #80
 466              	.LCFI9:
 467              		.cfi_def_cfa_offset 88
 468 0004 00AF     		add	r7, sp, #0
 469              	.LCFI10:
 470              		.cfi_def_cfa_register 7
 112:Core/Src/main.c ****   RCC_OscInitTypeDef RCC_OscInitStruct = {0};
 471              		.loc 1 112 22
 472 0006 07F12003 		add	r3, r7, #32
 473 000a 3022     		movs	r2, #48
 474 000c 0021     		movs	r1, #0
 475 000e 1846     		mov	r0, r3
 476 0010 FFF7FEFF 		bl	memset
 113:Core/Src/main.c ****   RCC_ClkInitTypeDef RCC_ClkInitStruct = {0};
 477              		.loc 1 113 22
 478 0014 07F10C03 		add	r3, r7, #12
 479 0018 0022     		movs	r2, #0
 480 001a 1A60     		str	r2, [r3]
 481 001c 5A60     		str	r2, [r3, #4]
 482 001e 9A60     		str	r2, [r3, #8]
 483 0020 DA60     		str	r2, [r3, #12]
 484 0022 1A61     		str	r2, [r3, #16]
 485              	.LBB6:
 114:Core/Src/main.c **** 
 115:Core/Src/main.c ****   /** Configure the main internal regulator output voltage
 116:Core/Src/main.c ****   */
 117:Core/Src/main.c ****   __HAL_RCC_PWR_CLK_ENABLE();
 486              		.loc 1 117 3
 487 0024 0023     		movs	r3, #0
 488 0026 BB60     		str	r3, [r7, #8]
 489 0028 294B     		ldr	r3, .L24
 490 002a 1B6C     		ldr	r3, [r3, #64]
 491 002c 284A     		ldr	r2, .L24
 492 002e 43F08053 		orr	r3, r3, #268435456
 493 0032 1364     		str	r3, [r2, #64]
ARM GAS  C:\Users\stryk\AppData\Local\Temp\cc9Kngvf.s 			page 12


 494 0034 264B     		ldr	r3, .L24
 495 0036 1B6C     		ldr	r3, [r3, #64]
 496 0038 03F08053 		and	r3, r3, #268435456
 497 003c BB60     		str	r3, [r7, #8]
 498 003e BB68     		ldr	r3, [r7, #8]
 499              	.LBE6:
 500              	.LBB7:
 118:Core/Src/main.c ****   __HAL_PWR_VOLTAGESCALING_CONFIG(PWR_REGULATOR_VOLTAGE_SCALE1);
 501              		.loc 1 118 3
 502 0040 0023     		movs	r3, #0
 503 0042 7B60     		str	r3, [r7, #4]
 504 0044 234B     		ldr	r3, .L24+4
 505 0046 1B68     		ldr	r3, [r3]
 506 0048 224A     		ldr	r2, .L24+4
 507 004a 43F44043 		orr	r3, r3, #49152
 508 004e 1360     		str	r3, [r2]
 509 0050 204B     		ldr	r3, .L24+4
 510 0052 1B68     		ldr	r3, [r3]
 511 0054 03F44043 		and	r3, r3, #49152
 512 0058 7B60     		str	r3, [r7, #4]
 513 005a 7B68     		ldr	r3, [r7, #4]
 514              	.LBE7:
 119:Core/Src/main.c **** 
 120:Core/Src/main.c ****   /** Initializes the RCC Oscillators according to the specified parameters
 121:Core/Src/main.c ****   * in the RCC_OscInitTypeDef structure.
 122:Core/Src/main.c ****   */
 123:Core/Src/main.c ****   RCC_OscInitStruct.OscillatorType = RCC_OSCILLATORTYPE_HSI|RCC_OSCILLATORTYPE_HSE;
 515              		.loc 1 123 36
 516 005c 0323     		movs	r3, #3
 517 005e 3B62     		str	r3, [r7, #32]
 124:Core/Src/main.c ****   RCC_OscInitStruct.HSEState = RCC_HSE_ON;
 518              		.loc 1 124 30
 519 0060 4FF48033 		mov	r3, #65536
 520 0064 7B62     		str	r3, [r7, #36]
 125:Core/Src/main.c ****   RCC_OscInitStruct.HSIState = RCC_HSI_ON;
 521              		.loc 1 125 30
 522 0066 0123     		movs	r3, #1
 523 0068 FB62     		str	r3, [r7, #44]
 126:Core/Src/main.c ****   RCC_OscInitStruct.HSICalibrationValue = RCC_HSICALIBRATION_DEFAULT;
 524              		.loc 1 126 41
 525 006a 1023     		movs	r3, #16
 526 006c 3B63     		str	r3, [r7, #48]
 127:Core/Src/main.c ****   RCC_OscInitStruct.PLL.PLLState = RCC_PLL_ON;
 527              		.loc 1 127 34
 528 006e 0223     		movs	r3, #2
 529 0070 BB63     		str	r3, [r7, #56]
 128:Core/Src/main.c ****   RCC_OscInitStruct.PLL.PLLSource = RCC_PLLSOURCE_HSE;
 530              		.loc 1 128 35
 531 0072 4FF48003 		mov	r3, #4194304
 532 0076 FB63     		str	r3, [r7, #60]
 129:Core/Src/main.c ****   RCC_OscInitStruct.PLL.PLLM = 15;
 533              		.loc 1 129 30
 534 0078 0F23     		movs	r3, #15
 535 007a 3B64     		str	r3, [r7, #64]
 130:Core/Src/main.c ****   RCC_OscInitStruct.PLL.PLLN = 144;
 536              		.loc 1 130 30
 537 007c 9023     		movs	r3, #144
ARM GAS  C:\Users\stryk\AppData\Local\Temp\cc9Kngvf.s 			page 13


 538 007e 7B64     		str	r3, [r7, #68]
 131:Core/Src/main.c ****   RCC_OscInitStruct.PLL.PLLP = RCC_PLLP_DIV2;
 539              		.loc 1 131 30
 540 0080 0223     		movs	r3, #2
 541 0082 BB64     		str	r3, [r7, #72]
 132:Core/Src/main.c ****   RCC_OscInitStruct.PLL.PLLQ = 5;
 542              		.loc 1 132 30
 543 0084 0523     		movs	r3, #5
 544 0086 FB64     		str	r3, [r7, #76]
 133:Core/Src/main.c ****   if (HAL_RCC_OscConfig(&RCC_OscInitStruct) != HAL_OK)
 545              		.loc 1 133 7
 546 0088 07F12003 		add	r3, r7, #32
 547 008c 1846     		mov	r0, r3
 548 008e FFF7FEFF 		bl	HAL_RCC_OscConfig
 549 0092 0346     		mov	r3, r0
 550              		.loc 1 133 6
 551 0094 002B     		cmp	r3, #0
 552 0096 01D0     		beq	.L21
 134:Core/Src/main.c ****   {
 135:Core/Src/main.c ****     Error_Handler();
 553              		.loc 1 135 5
 554 0098 FFF7FEFF 		bl	Error_Handler
 555              	.L21:
 136:Core/Src/main.c ****   }
 137:Core/Src/main.c **** 
 138:Core/Src/main.c ****   /** Initializes the CPU, AHB and APB buses clocks
 139:Core/Src/main.c ****   */
 140:Core/Src/main.c ****   RCC_ClkInitStruct.ClockType = RCC_CLOCKTYPE_HCLK|RCC_CLOCKTYPE_SYSCLK
 556              		.loc 1 140 31
 557 009c 0F23     		movs	r3, #15
 558 009e FB60     		str	r3, [r7, #12]
 141:Core/Src/main.c ****                               |RCC_CLOCKTYPE_PCLK1|RCC_CLOCKTYPE_PCLK2;
 142:Core/Src/main.c ****   RCC_ClkInitStruct.SYSCLKSource = RCC_SYSCLKSOURCE_HSI;
 559              		.loc 1 142 34
 560 00a0 0023     		movs	r3, #0
 561 00a2 3B61     		str	r3, [r7, #16]
 143:Core/Src/main.c ****   RCC_ClkInitStruct.AHBCLKDivider = RCC_SYSCLK_DIV1;
 562              		.loc 1 143 35
 563 00a4 0023     		movs	r3, #0
 564 00a6 7B61     		str	r3, [r7, #20]
 144:Core/Src/main.c ****   RCC_ClkInitStruct.APB1CLKDivider = RCC_HCLK_DIV1;
 565              		.loc 1 144 36
 566 00a8 0023     		movs	r3, #0
 567 00aa BB61     		str	r3, [r7, #24]
 145:Core/Src/main.c ****   RCC_ClkInitStruct.APB2CLKDivider = RCC_HCLK_DIV1;
 568              		.loc 1 145 36
 569 00ac 0023     		movs	r3, #0
 570 00ae FB61     		str	r3, [r7, #28]
 146:Core/Src/main.c **** 
 147:Core/Src/main.c ****   if (HAL_RCC_ClockConfig(&RCC_ClkInitStruct, FLASH_LATENCY_0) != HAL_OK)
 571              		.loc 1 147 7
 572 00b0 07F10C03 		add	r3, r7, #12
 573 00b4 0021     		movs	r1, #0
 574 00b6 1846     		mov	r0, r3
 575 00b8 FFF7FEFF 		bl	HAL_RCC_ClockConfig
 576 00bc 0346     		mov	r3, r0
 577              		.loc 1 147 6
ARM GAS  C:\Users\stryk\AppData\Local\Temp\cc9Kngvf.s 			page 14


 578 00be 002B     		cmp	r3, #0
 579 00c0 01D0     		beq	.L23
 148:Core/Src/main.c ****   {
 149:Core/Src/main.c ****     Error_Handler();
 580              		.loc 1 149 5
 581 00c2 FFF7FEFF 		bl	Error_Handler
 582              	.L23:
 150:Core/Src/main.c ****   }
 151:Core/Src/main.c **** }
 583              		.loc 1 151 1
 584 00c6 00BF     		nop
 585 00c8 5037     		adds	r7, r7, #80
 586              	.LCFI11:
 587              		.cfi_def_cfa_offset 8
 588 00ca BD46     		mov	sp, r7
 589              	.LCFI12:
 590              		.cfi_def_cfa_register 13
 591              		@ sp needed
 592 00cc 80BD     		pop	{r7, pc}
 593              	.L25:
 594 00ce 00BF     		.align	2
 595              	.L24:
 596 00d0 00380240 		.word	1073887232
 597 00d4 00700040 		.word	1073770496
 598              		.cfi_endproc
 599              	.LFE222:
 601              		.section	.text.MX_ADC1_Init,"ax",%progbits
 602              		.align	1
 603              		.syntax unified
 604              		.thumb
 605              		.thumb_func
 607              	MX_ADC1_Init:
 608              	.LFB223:
 152:Core/Src/main.c **** 
 153:Core/Src/main.c **** /**
 154:Core/Src/main.c ****   * @brief ADC1 Initialization Function
 155:Core/Src/main.c ****   * @param None
 156:Core/Src/main.c ****   * @retval None
 157:Core/Src/main.c ****   */
 158:Core/Src/main.c **** static void MX_ADC1_Init(void)
 159:Core/Src/main.c **** {
 609              		.loc 1 159 1
 610              		.cfi_startproc
 611              		@ args = 0, pretend = 0, frame = 16
 612              		@ frame_needed = 1, uses_anonymous_args = 0
 613 0000 80B5     		push	{r7, lr}
 614              	.LCFI13:
 615              		.cfi_def_cfa_offset 8
 616              		.cfi_offset 7, -8
 617              		.cfi_offset 14, -4
 618 0002 84B0     		sub	sp, sp, #16
 619              	.LCFI14:
 620              		.cfi_def_cfa_offset 24
 621 0004 00AF     		add	r7, sp, #0
 622              	.LCFI15:
 623              		.cfi_def_cfa_register 7
 160:Core/Src/main.c **** 
ARM GAS  C:\Users\stryk\AppData\Local\Temp\cc9Kngvf.s 			page 15


 161:Core/Src/main.c ****   /* USER CODE BEGIN ADC1_Init 0 */
 162:Core/Src/main.c **** 
 163:Core/Src/main.c ****   /* USER CODE END ADC1_Init 0 */
 164:Core/Src/main.c **** 
 165:Core/Src/main.c ****   ADC_ChannelConfTypeDef sConfig = {0};
 624              		.loc 1 165 26
 625 0006 3B46     		mov	r3, r7
 626 0008 0022     		movs	r2, #0
 627 000a 1A60     		str	r2, [r3]
 628 000c 5A60     		str	r2, [r3, #4]
 629 000e 9A60     		str	r2, [r3, #8]
 630 0010 DA60     		str	r2, [r3, #12]
 166:Core/Src/main.c **** 
 167:Core/Src/main.c ****   /* USER CODE BEGIN ADC1_Init 1 */
 168:Core/Src/main.c **** 
 169:Core/Src/main.c ****   /* USER CODE END ADC1_Init 1 */
 170:Core/Src/main.c **** 
 171:Core/Src/main.c ****   /** Configure the global features of the ADC (Clock, Resolution, Data Alignment and number of con
 172:Core/Src/main.c ****   */
 173:Core/Src/main.c ****   hadc1.Instance = ADC1;
 631              		.loc 1 173 18
 632 0012 214B     		ldr	r3, .L30
 633 0014 214A     		ldr	r2, .L30+4
 634 0016 1A60     		str	r2, [r3]
 174:Core/Src/main.c ****   hadc1.Init.ClockPrescaler = ADC_CLOCK_SYNC_PCLK_DIV2;
 635              		.loc 1 174 29
 636 0018 1F4B     		ldr	r3, .L30
 637 001a 0022     		movs	r2, #0
 638 001c 5A60     		str	r2, [r3, #4]
 175:Core/Src/main.c ****   hadc1.Init.Resolution = ADC_RESOLUTION_12B;
 639              		.loc 1 175 25
 640 001e 1E4B     		ldr	r3, .L30
 641 0020 0022     		movs	r2, #0
 642 0022 9A60     		str	r2, [r3, #8]
 176:Core/Src/main.c ****   hadc1.Init.ScanConvMode = DISABLE;
 643              		.loc 1 176 27
 644 0024 1C4B     		ldr	r3, .L30
 645 0026 0022     		movs	r2, #0
 646 0028 1A61     		str	r2, [r3, #16]
 177:Core/Src/main.c ****   hadc1.Init.ContinuousConvMode = DISABLE;
 647              		.loc 1 177 33
 648 002a 1B4B     		ldr	r3, .L30
 649 002c 0022     		movs	r2, #0
 650 002e 1A76     		strb	r2, [r3, #24]
 178:Core/Src/main.c ****   hadc1.Init.DiscontinuousConvMode = DISABLE;
 651              		.loc 1 178 36
 652 0030 194B     		ldr	r3, .L30
 653 0032 0022     		movs	r2, #0
 654 0034 83F82020 		strb	r2, [r3, #32]
 179:Core/Src/main.c ****   hadc1.Init.ExternalTrigConvEdge = ADC_EXTERNALTRIGCONVEDGE_NONE;
 655              		.loc 1 179 35
 656 0038 174B     		ldr	r3, .L30
 657 003a 0022     		movs	r2, #0
 658 003c DA62     		str	r2, [r3, #44]
 180:Core/Src/main.c ****   hadc1.Init.ExternalTrigConv = ADC_SOFTWARE_START;
 659              		.loc 1 180 31
 660 003e 164B     		ldr	r3, .L30
ARM GAS  C:\Users\stryk\AppData\Local\Temp\cc9Kngvf.s 			page 16


 661 0040 174A     		ldr	r2, .L30+8
 662 0042 9A62     		str	r2, [r3, #40]
 181:Core/Src/main.c ****   hadc1.Init.DataAlign = ADC_DATAALIGN_RIGHT;
 663              		.loc 1 181 24
 664 0044 144B     		ldr	r3, .L30
 665 0046 0022     		movs	r2, #0
 666 0048 DA60     		str	r2, [r3, #12]
 182:Core/Src/main.c ****   hadc1.Init.NbrOfConversion = 1;
 667              		.loc 1 182 30
 668 004a 134B     		ldr	r3, .L30
 669 004c 0122     		movs	r2, #1
 670 004e DA61     		str	r2, [r3, #28]
 183:Core/Src/main.c ****   hadc1.Init.DMAContinuousRequests = DISABLE;
 671              		.loc 1 183 36
 672 0050 114B     		ldr	r3, .L30
 673 0052 0022     		movs	r2, #0
 674 0054 83F83020 		strb	r2, [r3, #48]
 184:Core/Src/main.c ****   hadc1.Init.EOCSelection = ADC_EOC_SINGLE_CONV;
 675              		.loc 1 184 27
 676 0058 0F4B     		ldr	r3, .L30
 677 005a 0122     		movs	r2, #1
 678 005c 5A61     		str	r2, [r3, #20]
 185:Core/Src/main.c ****   if (HAL_ADC_Init(&hadc1) != HAL_OK)
 679              		.loc 1 185 7
 680 005e 0E48     		ldr	r0, .L30
 681 0060 FFF7FEFF 		bl	HAL_ADC_Init
 682 0064 0346     		mov	r3, r0
 683              		.loc 1 185 6
 684 0066 002B     		cmp	r3, #0
 685 0068 01D0     		beq	.L27
 186:Core/Src/main.c ****   {
 187:Core/Src/main.c ****     Error_Handler();
 686              		.loc 1 187 5
 687 006a FFF7FEFF 		bl	Error_Handler
 688              	.L27:
 188:Core/Src/main.c ****   }
 189:Core/Src/main.c **** 
 190:Core/Src/main.c ****   /** Configure for the selected ADC regular channel its corresponding rank in the sequencer and it
 191:Core/Src/main.c ****   */
 192:Core/Src/main.c ****   sConfig.Channel = ADC_CHANNEL_2;
 689              		.loc 1 192 19
 690 006e 0223     		movs	r3, #2
 691 0070 3B60     		str	r3, [r7]
 193:Core/Src/main.c ****   sConfig.Rank = 1;
 692              		.loc 1 193 16
 693 0072 0123     		movs	r3, #1
 694 0074 7B60     		str	r3, [r7, #4]
 194:Core/Src/main.c ****   sConfig.SamplingTime = ADC_SAMPLETIME_3CYCLES;
 695              		.loc 1 194 24
 696 0076 0023     		movs	r3, #0
 697 0078 BB60     		str	r3, [r7, #8]
 195:Core/Src/main.c ****   if (HAL_ADC_ConfigChannel(&hadc1, &sConfig) != HAL_OK)
 698              		.loc 1 195 7
 699 007a 3B46     		mov	r3, r7
 700 007c 1946     		mov	r1, r3
 701 007e 0648     		ldr	r0, .L30
 702 0080 FFF7FEFF 		bl	HAL_ADC_ConfigChannel
ARM GAS  C:\Users\stryk\AppData\Local\Temp\cc9Kngvf.s 			page 17


 703 0084 0346     		mov	r3, r0
 704              		.loc 1 195 6
 705 0086 002B     		cmp	r3, #0
 706 0088 01D0     		beq	.L29
 196:Core/Src/main.c ****   {
 197:Core/Src/main.c ****     Error_Handler();
 707              		.loc 1 197 5
 708 008a FFF7FEFF 		bl	Error_Handler
 709              	.L29:
 198:Core/Src/main.c ****   }
 199:Core/Src/main.c ****   /* USER CODE BEGIN ADC1_Init 2 */
 200:Core/Src/main.c **** 
 201:Core/Src/main.c ****   /* USER CODE END ADC1_Init 2 */
 202:Core/Src/main.c **** 
 203:Core/Src/main.c **** }
 710              		.loc 1 203 1
 711 008e 00BF     		nop
 712 0090 1037     		adds	r7, r7, #16
 713              	.LCFI16:
 714              		.cfi_def_cfa_offset 8
 715 0092 BD46     		mov	sp, r7
 716              	.LCFI17:
 717              		.cfi_def_cfa_register 13
 718              		@ sp needed
 719 0094 80BD     		pop	{r7, pc}
 720              	.L31:
 721 0096 00BF     		.align	2
 722              	.L30:
 723 0098 00000000 		.word	hadc1
 724 009c 00200140 		.word	1073815552
 725 00a0 0100000F 		.word	251658241
 726              		.cfi_endproc
 727              	.LFE223:
 729              		.section	.text.MX_TIM2_Init,"ax",%progbits
 730              		.align	1
 731              		.syntax unified
 732              		.thumb
 733              		.thumb_func
 735              	MX_TIM2_Init:
 736              	.LFB224:
 204:Core/Src/main.c **** 
 205:Core/Src/main.c **** /**
 206:Core/Src/main.c ****   * @brief TIM2 Initialization Function
 207:Core/Src/main.c ****   * @param None
 208:Core/Src/main.c ****   * @retval None
 209:Core/Src/main.c ****   */
 210:Core/Src/main.c **** static void MX_TIM2_Init(void)
 211:Core/Src/main.c **** {
 737              		.loc 1 211 1
 738              		.cfi_startproc
 739              		@ args = 0, pretend = 0, frame = 40
 740              		@ frame_needed = 1, uses_anonymous_args = 0
 741 0000 80B5     		push	{r7, lr}
 742              	.LCFI18:
 743              		.cfi_def_cfa_offset 8
 744              		.cfi_offset 7, -8
 745              		.cfi_offset 14, -4
ARM GAS  C:\Users\stryk\AppData\Local\Temp\cc9Kngvf.s 			page 18


 746 0002 8AB0     		sub	sp, sp, #40
 747              	.LCFI19:
 748              		.cfi_def_cfa_offset 48
 749 0004 00AF     		add	r7, sp, #0
 750              	.LCFI20:
 751              		.cfi_def_cfa_register 7
 212:Core/Src/main.c **** 
 213:Core/Src/main.c ****   /* USER CODE BEGIN TIM2_Init 0 */
 214:Core/Src/main.c **** 
 215:Core/Src/main.c ****   /* USER CODE END TIM2_Init 0 */
 216:Core/Src/main.c **** 
 217:Core/Src/main.c ****   TIM_MasterConfigTypeDef sMasterConfig = {0};
 752              		.loc 1 217 27
 753 0006 07F12003 		add	r3, r7, #32
 754 000a 0022     		movs	r2, #0
 755 000c 1A60     		str	r2, [r3]
 756 000e 5A60     		str	r2, [r3, #4]
 218:Core/Src/main.c ****   TIM_OC_InitTypeDef sConfigOC = {0};
 757              		.loc 1 218 22
 758 0010 3B1D     		adds	r3, r7, #4
 759 0012 0022     		movs	r2, #0
 760 0014 1A60     		str	r2, [r3]
 761 0016 5A60     		str	r2, [r3, #4]
 762 0018 9A60     		str	r2, [r3, #8]
 763 001a DA60     		str	r2, [r3, #12]
 764 001c 1A61     		str	r2, [r3, #16]
 765 001e 5A61     		str	r2, [r3, #20]
 766 0020 9A61     		str	r2, [r3, #24]
 219:Core/Src/main.c **** 
 220:Core/Src/main.c ****   /* USER CODE BEGIN TIM2_Init 1 */
 221:Core/Src/main.c **** 
 222:Core/Src/main.c ****   /* USER CODE END TIM2_Init 1 */
 223:Core/Src/main.c ****   htim2.Instance = TIM2;
 767              		.loc 1 223 18
 768 0022 284B     		ldr	r3, .L37
 769 0024 4FF08042 		mov	r2, #1073741824
 770 0028 1A60     		str	r2, [r3]
 224:Core/Src/main.c ****   htim2.Init.Prescaler = 0;
 771              		.loc 1 224 24
 772 002a 264B     		ldr	r3, .L37
 773 002c 0022     		movs	r2, #0
 774 002e 5A60     		str	r2, [r3, #4]
 225:Core/Src/main.c ****   htim2.Init.CounterMode = TIM_COUNTERMODE_UP;
 775              		.loc 1 225 26
 776 0030 244B     		ldr	r3, .L37
 777 0032 0022     		movs	r2, #0
 778 0034 9A60     		str	r2, [r3, #8]
 226:Core/Src/main.c ****   htim2.Init.Period = 4939;
 779              		.loc 1 226 21
 780 0036 234B     		ldr	r3, .L37
 781 0038 41F24B32 		movw	r2, #4939
 782 003c DA60     		str	r2, [r3, #12]
 227:Core/Src/main.c ****   htim2.Init.ClockDivision = TIM_CLOCKDIVISION_DIV1;
 783              		.loc 1 227 28
 784 003e 214B     		ldr	r3, .L37
 785 0040 0022     		movs	r2, #0
 786 0042 1A61     		str	r2, [r3, #16]
ARM GAS  C:\Users\stryk\AppData\Local\Temp\cc9Kngvf.s 			page 19


 228:Core/Src/main.c ****   htim2.Init.AutoReloadPreload = TIM_AUTORELOAD_PRELOAD_DISABLE;
 787              		.loc 1 228 32
 788 0044 1F4B     		ldr	r3, .L37
 789 0046 0022     		movs	r2, #0
 790 0048 9A61     		str	r2, [r3, #24]
 229:Core/Src/main.c ****   if (HAL_TIM_PWM_Init(&htim2) != HAL_OK)
 791              		.loc 1 229 7
 792 004a 1E48     		ldr	r0, .L37
 793 004c FFF7FEFF 		bl	HAL_TIM_PWM_Init
 794 0050 0346     		mov	r3, r0
 795              		.loc 1 229 6
 796 0052 002B     		cmp	r3, #0
 797 0054 01D0     		beq	.L33
 230:Core/Src/main.c ****   {
 231:Core/Src/main.c ****     Error_Handler();
 798              		.loc 1 231 5
 799 0056 FFF7FEFF 		bl	Error_Handler
 800              	.L33:
 232:Core/Src/main.c ****   }
 233:Core/Src/main.c ****   sMasterConfig.MasterOutputTrigger = TIM_TRGO_RESET;
 801              		.loc 1 233 37
 802 005a 0023     		movs	r3, #0
 803 005c 3B62     		str	r3, [r7, #32]
 234:Core/Src/main.c ****   sMasterConfig.MasterSlaveMode = TIM_MASTERSLAVEMODE_DISABLE;
 804              		.loc 1 234 33
 805 005e 0023     		movs	r3, #0
 806 0060 7B62     		str	r3, [r7, #36]
 235:Core/Src/main.c ****   if (HAL_TIMEx_MasterConfigSynchronization(&htim2, &sMasterConfig) != HAL_OK)
 807              		.loc 1 235 7
 808 0062 07F12003 		add	r3, r7, #32
 809 0066 1946     		mov	r1, r3
 810 0068 1648     		ldr	r0, .L37
 811 006a FFF7FEFF 		bl	HAL_TIMEx_MasterConfigSynchronization
 812 006e 0346     		mov	r3, r0
 813              		.loc 1 235 6
 814 0070 002B     		cmp	r3, #0
 815 0072 01D0     		beq	.L34
 236:Core/Src/main.c ****   {
 237:Core/Src/main.c ****     Error_Handler();
 816              		.loc 1 237 5
 817 0074 FFF7FEFF 		bl	Error_Handler
 818              	.L34:
 238:Core/Src/main.c ****   }
 239:Core/Src/main.c ****   sConfigOC.OCMode = TIM_OCMODE_PWM1;
 819              		.loc 1 239 20
 820 0078 6023     		movs	r3, #96
 821 007a 7B60     		str	r3, [r7, #4]
 240:Core/Src/main.c ****   sConfigOC.Pulse = 0;
 822              		.loc 1 240 19
 823 007c 0023     		movs	r3, #0
 824 007e BB60     		str	r3, [r7, #8]
 241:Core/Src/main.c ****   sConfigOC.OCPolarity = TIM_OCPOLARITY_HIGH;
 825              		.loc 1 241 24
 826 0080 0023     		movs	r3, #0
 827 0082 FB60     		str	r3, [r7, #12]
 242:Core/Src/main.c ****   sConfigOC.OCFastMode = TIM_OCFAST_DISABLE;
 828              		.loc 1 242 24
ARM GAS  C:\Users\stryk\AppData\Local\Temp\cc9Kngvf.s 			page 20


 829 0084 0023     		movs	r3, #0
 830 0086 7B61     		str	r3, [r7, #20]
 243:Core/Src/main.c ****   if (HAL_TIM_PWM_ConfigChannel(&htim2, &sConfigOC, TIM_CHANNEL_1) != HAL_OK)
 831              		.loc 1 243 7
 832 0088 3B1D     		adds	r3, r7, #4
 833 008a 0022     		movs	r2, #0
 834 008c 1946     		mov	r1, r3
 835 008e 0D48     		ldr	r0, .L37
 836 0090 FFF7FEFF 		bl	HAL_TIM_PWM_ConfigChannel
 837 0094 0346     		mov	r3, r0
 838              		.loc 1 243 6
 839 0096 002B     		cmp	r3, #0
 840 0098 01D0     		beq	.L35
 244:Core/Src/main.c ****   {
 245:Core/Src/main.c ****     Error_Handler();
 841              		.loc 1 245 5
 842 009a FFF7FEFF 		bl	Error_Handler
 843              	.L35:
 246:Core/Src/main.c ****   }
 247:Core/Src/main.c ****   if (HAL_TIM_PWM_ConfigChannel(&htim2, &sConfigOC, TIM_CHANNEL_2) != HAL_OK)
 844              		.loc 1 247 7
 845 009e 3B1D     		adds	r3, r7, #4
 846 00a0 0422     		movs	r2, #4
 847 00a2 1946     		mov	r1, r3
 848 00a4 0748     		ldr	r0, .L37
 849 00a6 FFF7FEFF 		bl	HAL_TIM_PWM_ConfigChannel
 850 00aa 0346     		mov	r3, r0
 851              		.loc 1 247 6
 852 00ac 002B     		cmp	r3, #0
 853 00ae 01D0     		beq	.L36
 248:Core/Src/main.c ****   {
 249:Core/Src/main.c ****     Error_Handler();
 854              		.loc 1 249 5
 855 00b0 FFF7FEFF 		bl	Error_Handler
 856              	.L36:
 250:Core/Src/main.c ****   }
 251:Core/Src/main.c ****   /* USER CODE BEGIN TIM2_Init 2 */
 252:Core/Src/main.c **** 
 253:Core/Src/main.c ****   /* USER CODE END TIM2_Init 2 */
 254:Core/Src/main.c ****   HAL_TIM_MspPostInit(&htim2);
 857              		.loc 1 254 3
 858 00b4 0348     		ldr	r0, .L37
 859 00b6 FFF7FEFF 		bl	HAL_TIM_MspPostInit
 255:Core/Src/main.c **** 
 256:Core/Src/main.c **** }
 860              		.loc 1 256 1
 861 00ba 00BF     		nop
 862 00bc 2837     		adds	r7, r7, #40
 863              	.LCFI21:
 864              		.cfi_def_cfa_offset 8
 865 00be BD46     		mov	sp, r7
 866              	.LCFI22:
 867              		.cfi_def_cfa_register 13
 868              		@ sp needed
 869 00c0 80BD     		pop	{r7, pc}
 870              	.L38:
 871 00c2 00BF     		.align	2
ARM GAS  C:\Users\stryk\AppData\Local\Temp\cc9Kngvf.s 			page 21


 872              	.L37:
 873 00c4 00000000 		.word	htim2
 874              		.cfi_endproc
 875              	.LFE224:
 877              		.section	.text.MX_GPIO_Init,"ax",%progbits
 878              		.align	1
 879              		.syntax unified
 880              		.thumb
 881              		.thumb_func
 883              	MX_GPIO_Init:
 884              	.LFB225:
 257:Core/Src/main.c **** 
 258:Core/Src/main.c **** /**
 259:Core/Src/main.c ****   * @brief GPIO Initialization Function
 260:Core/Src/main.c ****   * @param None
 261:Core/Src/main.c ****   * @retval None
 262:Core/Src/main.c ****   */
 263:Core/Src/main.c **** static void MX_GPIO_Init(void)
 264:Core/Src/main.c **** {
 885              		.loc 1 264 1
 886              		.cfi_startproc
 887              		@ args = 0, pretend = 0, frame = 32
 888              		@ frame_needed = 1, uses_anonymous_args = 0
 889 0000 80B5     		push	{r7, lr}
 890              	.LCFI23:
 891              		.cfi_def_cfa_offset 8
 892              		.cfi_offset 7, -8
 893              		.cfi_offset 14, -4
 894 0002 88B0     		sub	sp, sp, #32
 895              	.LCFI24:
 896              		.cfi_def_cfa_offset 40
 897 0004 00AF     		add	r7, sp, #0
 898              	.LCFI25:
 899              		.cfi_def_cfa_register 7
 265:Core/Src/main.c ****   GPIO_InitTypeDef GPIO_InitStruct = {0};
 900              		.loc 1 265 20
 901 0006 07F10C03 		add	r3, r7, #12
 902 000a 0022     		movs	r2, #0
 903 000c 1A60     		str	r2, [r3]
 904 000e 5A60     		str	r2, [r3, #4]
 905 0010 9A60     		str	r2, [r3, #8]
 906 0012 DA60     		str	r2, [r3, #12]
 907 0014 1A61     		str	r2, [r3, #16]
 908              	.LBB8:
 266:Core/Src/main.c **** /* USER CODE BEGIN MX_GPIO_Init_1 */
 267:Core/Src/main.c **** /* USER CODE END MX_GPIO_Init_1 */
 268:Core/Src/main.c **** 
 269:Core/Src/main.c ****   /* GPIO Ports Clock Enable */
 270:Core/Src/main.c ****   __HAL_RCC_GPIOH_CLK_ENABLE();
 909              		.loc 1 270 3
 910 0016 0023     		movs	r3, #0
 911 0018 BB60     		str	r3, [r7, #8]
 912 001a 1C4B     		ldr	r3, .L40
 913 001c 1B6B     		ldr	r3, [r3, #48]
 914 001e 1B4A     		ldr	r2, .L40
 915 0020 43F08003 		orr	r3, r3, #128
 916 0024 1363     		str	r3, [r2, #48]
ARM GAS  C:\Users\stryk\AppData\Local\Temp\cc9Kngvf.s 			page 22


 917 0026 194B     		ldr	r3, .L40
 918 0028 1B6B     		ldr	r3, [r3, #48]
 919 002a 03F08003 		and	r3, r3, #128
 920 002e BB60     		str	r3, [r7, #8]
 921 0030 BB68     		ldr	r3, [r7, #8]
 922              	.LBE8:
 923              	.LBB9:
 271:Core/Src/main.c ****   __HAL_RCC_GPIOA_CLK_ENABLE();
 924              		.loc 1 271 3
 925 0032 0023     		movs	r3, #0
 926 0034 7B60     		str	r3, [r7, #4]
 927 0036 154B     		ldr	r3, .L40
 928 0038 1B6B     		ldr	r3, [r3, #48]
 929 003a 144A     		ldr	r2, .L40
 930 003c 43F00103 		orr	r3, r3, #1
 931 0040 1363     		str	r3, [r2, #48]
 932 0042 124B     		ldr	r3, .L40
 933 0044 1B6B     		ldr	r3, [r3, #48]
 934 0046 03F00103 		and	r3, r3, #1
 935 004a 7B60     		str	r3, [r7, #4]
 936 004c 7B68     		ldr	r3, [r7, #4]
 937              	.LBE9:
 938              	.LBB10:
 272:Core/Src/main.c ****   __HAL_RCC_GPIOB_CLK_ENABLE();
 939              		.loc 1 272 3
 940 004e 0023     		movs	r3, #0
 941 0050 3B60     		str	r3, [r7]
 942 0052 0E4B     		ldr	r3, .L40
 943 0054 1B6B     		ldr	r3, [r3, #48]
 944 0056 0D4A     		ldr	r2, .L40
 945 0058 43F00203 		orr	r3, r3, #2
 946 005c 1363     		str	r3, [r2, #48]
 947 005e 0B4B     		ldr	r3, .L40
 948 0060 1B6B     		ldr	r3, [r3, #48]
 949 0062 03F00203 		and	r3, r3, #2
 950 0066 3B60     		str	r3, [r7]
 951 0068 3B68     		ldr	r3, [r7]
 952              	.LBE10:
 273:Core/Src/main.c **** 
 274:Core/Src/main.c ****   /*Configure GPIO pins : PB12 PB13 */
 275:Core/Src/main.c ****   GPIO_InitStruct.Pin = GPIO_PIN_12|GPIO_PIN_13;
 953              		.loc 1 275 23
 954 006a 4FF44053 		mov	r3, #12288
 955 006e FB60     		str	r3, [r7, #12]
 276:Core/Src/main.c ****   GPIO_InitStruct.Mode = GPIO_MODE_INPUT;
 956              		.loc 1 276 24
 957 0070 0023     		movs	r3, #0
 958 0072 3B61     		str	r3, [r7, #16]
 277:Core/Src/main.c ****   GPIO_InitStruct.Pull = GPIO_NOPULL;
 959              		.loc 1 277 24
 960 0074 0023     		movs	r3, #0
 961 0076 7B61     		str	r3, [r7, #20]
 278:Core/Src/main.c ****   HAL_GPIO_Init(GPIOB, &GPIO_InitStruct);
 962              		.loc 1 278 3
 963 0078 07F10C03 		add	r3, r7, #12
 964 007c 1946     		mov	r1, r3
 965 007e 0448     		ldr	r0, .L40+4
ARM GAS  C:\Users\stryk\AppData\Local\Temp\cc9Kngvf.s 			page 23


 966 0080 FFF7FEFF 		bl	HAL_GPIO_Init
 279:Core/Src/main.c **** 
 280:Core/Src/main.c **** /* USER CODE BEGIN MX_GPIO_Init_2 */
 281:Core/Src/main.c **** /* USER CODE END MX_GPIO_Init_2 */
 282:Core/Src/main.c **** }
 967              		.loc 1 282 1
 968 0084 00BF     		nop
 969 0086 2037     		adds	r7, r7, #32
 970              	.LCFI26:
 971              		.cfi_def_cfa_offset 8
 972 0088 BD46     		mov	sp, r7
 973              	.LCFI27:
 974              		.cfi_def_cfa_register 13
 975              		@ sp needed
 976 008a 80BD     		pop	{r7, pc}
 977              	.L41:
 978              		.align	2
 979              	.L40:
 980 008c 00380240 		.word	1073887232
 981 0090 00040240 		.word	1073873920
 982              		.cfi_endproc
 983              	.LFE225:
 985              		.section	.text.Error_Handler,"ax",%progbits
 986              		.align	1
 987              		.global	Error_Handler
 988              		.syntax unified
 989              		.thumb
 990              		.thumb_func
 992              	Error_Handler:
 993              	.LFB226:
 283:Core/Src/main.c **** 
 284:Core/Src/main.c **** /* USER CODE BEGIN 4 */
 285:Core/Src/main.c **** 
 286:Core/Src/main.c **** /* USER CODE END 4 */
 287:Core/Src/main.c **** 
 288:Core/Src/main.c **** /**
 289:Core/Src/main.c ****   * @brief  This function is executed in case of error occurrence.
 290:Core/Src/main.c ****   * @retval None
 291:Core/Src/main.c ****   */
 292:Core/Src/main.c **** void Error_Handler(void)
 293:Core/Src/main.c **** {
 994              		.loc 1 293 1
 995              		.cfi_startproc
 996              		@ args = 0, pretend = 0, frame = 0
 997              		@ frame_needed = 1, uses_anonymous_args = 0
 998              		@ link register save eliminated.
 999 0000 80B4     		push	{r7}
 1000              	.LCFI28:
 1001              		.cfi_def_cfa_offset 4
 1002              		.cfi_offset 7, -4
 1003 0002 00AF     		add	r7, sp, #0
 1004              	.LCFI29:
 1005              		.cfi_def_cfa_register 7
 1006              	.LBB11:
 1007              	.LBB12:
 1008              		.file 2 "Drivers/CMSIS/Include/cmsis_gcc.h"
   1:Drivers/CMSIS/Include/cmsis_gcc.h **** /**************************************************************************//**
ARM GAS  C:\Users\stryk\AppData\Local\Temp\cc9Kngvf.s 			page 24


   2:Drivers/CMSIS/Include/cmsis_gcc.h ****  * @file     cmsis_gcc.h
   3:Drivers/CMSIS/Include/cmsis_gcc.h ****  * @brief    CMSIS compiler GCC header file
   4:Drivers/CMSIS/Include/cmsis_gcc.h ****  * @version  V5.0.4
   5:Drivers/CMSIS/Include/cmsis_gcc.h ****  * @date     09. April 2018
   6:Drivers/CMSIS/Include/cmsis_gcc.h ****  ******************************************************************************/
   7:Drivers/CMSIS/Include/cmsis_gcc.h **** /*
   8:Drivers/CMSIS/Include/cmsis_gcc.h ****  * Copyright (c) 2009-2018 Arm Limited. All rights reserved.
   9:Drivers/CMSIS/Include/cmsis_gcc.h ****  *
  10:Drivers/CMSIS/Include/cmsis_gcc.h ****  * SPDX-License-Identifier: Apache-2.0
  11:Drivers/CMSIS/Include/cmsis_gcc.h ****  *
  12:Drivers/CMSIS/Include/cmsis_gcc.h ****  * Licensed under the Apache License, Version 2.0 (the License); you may
  13:Drivers/CMSIS/Include/cmsis_gcc.h ****  * not use this file except in compliance with the License.
  14:Drivers/CMSIS/Include/cmsis_gcc.h ****  * You may obtain a copy of the License at
  15:Drivers/CMSIS/Include/cmsis_gcc.h ****  *
  16:Drivers/CMSIS/Include/cmsis_gcc.h ****  * www.apache.org/licenses/LICENSE-2.0
  17:Drivers/CMSIS/Include/cmsis_gcc.h ****  *
  18:Drivers/CMSIS/Include/cmsis_gcc.h ****  * Unless required by applicable law or agreed to in writing, software
  19:Drivers/CMSIS/Include/cmsis_gcc.h ****  * distributed under the License is distributed on an AS IS BASIS, WITHOUT
  20:Drivers/CMSIS/Include/cmsis_gcc.h ****  * WARRANTIES OR CONDITIONS OF ANY KIND, either express or implied.
  21:Drivers/CMSIS/Include/cmsis_gcc.h ****  * See the License for the specific language governing permissions and
  22:Drivers/CMSIS/Include/cmsis_gcc.h ****  * limitations under the License.
  23:Drivers/CMSIS/Include/cmsis_gcc.h ****  */
  24:Drivers/CMSIS/Include/cmsis_gcc.h **** 
  25:Drivers/CMSIS/Include/cmsis_gcc.h **** #ifndef __CMSIS_GCC_H
  26:Drivers/CMSIS/Include/cmsis_gcc.h **** #define __CMSIS_GCC_H
  27:Drivers/CMSIS/Include/cmsis_gcc.h **** 
  28:Drivers/CMSIS/Include/cmsis_gcc.h **** /* ignore some GCC warnings */
  29:Drivers/CMSIS/Include/cmsis_gcc.h **** #pragma GCC diagnostic push
  30:Drivers/CMSIS/Include/cmsis_gcc.h **** #pragma GCC diagnostic ignored "-Wsign-conversion"
  31:Drivers/CMSIS/Include/cmsis_gcc.h **** #pragma GCC diagnostic ignored "-Wconversion"
  32:Drivers/CMSIS/Include/cmsis_gcc.h **** #pragma GCC diagnostic ignored "-Wunused-parameter"
  33:Drivers/CMSIS/Include/cmsis_gcc.h **** 
  34:Drivers/CMSIS/Include/cmsis_gcc.h **** /* Fallback for __has_builtin */
  35:Drivers/CMSIS/Include/cmsis_gcc.h **** #ifndef __has_builtin
  36:Drivers/CMSIS/Include/cmsis_gcc.h ****   #define __has_builtin(x) (0)
  37:Drivers/CMSIS/Include/cmsis_gcc.h **** #endif
  38:Drivers/CMSIS/Include/cmsis_gcc.h **** 
  39:Drivers/CMSIS/Include/cmsis_gcc.h **** /* CMSIS compiler specific defines */
  40:Drivers/CMSIS/Include/cmsis_gcc.h **** #ifndef   __ASM
  41:Drivers/CMSIS/Include/cmsis_gcc.h ****   #define __ASM                                  __asm
  42:Drivers/CMSIS/Include/cmsis_gcc.h **** #endif
  43:Drivers/CMSIS/Include/cmsis_gcc.h **** #ifndef   __INLINE
  44:Drivers/CMSIS/Include/cmsis_gcc.h ****   #define __INLINE                               inline
  45:Drivers/CMSIS/Include/cmsis_gcc.h **** #endif
  46:Drivers/CMSIS/Include/cmsis_gcc.h **** #ifndef   __STATIC_INLINE
  47:Drivers/CMSIS/Include/cmsis_gcc.h ****   #define __STATIC_INLINE                        static inline
  48:Drivers/CMSIS/Include/cmsis_gcc.h **** #endif
  49:Drivers/CMSIS/Include/cmsis_gcc.h **** #ifndef   __STATIC_FORCEINLINE                 
  50:Drivers/CMSIS/Include/cmsis_gcc.h ****   #define __STATIC_FORCEINLINE                   __attribute__((always_inline)) static inline
  51:Drivers/CMSIS/Include/cmsis_gcc.h **** #endif                                           
  52:Drivers/CMSIS/Include/cmsis_gcc.h **** #ifndef   __NO_RETURN
  53:Drivers/CMSIS/Include/cmsis_gcc.h ****   #define __NO_RETURN                            __attribute__((__noreturn__))
  54:Drivers/CMSIS/Include/cmsis_gcc.h **** #endif
  55:Drivers/CMSIS/Include/cmsis_gcc.h **** #ifndef   __USED
  56:Drivers/CMSIS/Include/cmsis_gcc.h ****   #define __USED                                 __attribute__((used))
  57:Drivers/CMSIS/Include/cmsis_gcc.h **** #endif
  58:Drivers/CMSIS/Include/cmsis_gcc.h **** #ifndef   __WEAK
ARM GAS  C:\Users\stryk\AppData\Local\Temp\cc9Kngvf.s 			page 25


  59:Drivers/CMSIS/Include/cmsis_gcc.h ****   #define __WEAK                                 __attribute__((weak))
  60:Drivers/CMSIS/Include/cmsis_gcc.h **** #endif
  61:Drivers/CMSIS/Include/cmsis_gcc.h **** #ifndef   __PACKED
  62:Drivers/CMSIS/Include/cmsis_gcc.h ****   #define __PACKED                               __attribute__((packed, aligned(1)))
  63:Drivers/CMSIS/Include/cmsis_gcc.h **** #endif
  64:Drivers/CMSIS/Include/cmsis_gcc.h **** #ifndef   __PACKED_STRUCT
  65:Drivers/CMSIS/Include/cmsis_gcc.h ****   #define __PACKED_STRUCT                        struct __attribute__((packed, aligned(1)))
  66:Drivers/CMSIS/Include/cmsis_gcc.h **** #endif
  67:Drivers/CMSIS/Include/cmsis_gcc.h **** #ifndef   __PACKED_UNION
  68:Drivers/CMSIS/Include/cmsis_gcc.h ****   #define __PACKED_UNION                         union __attribute__((packed, aligned(1)))
  69:Drivers/CMSIS/Include/cmsis_gcc.h **** #endif
  70:Drivers/CMSIS/Include/cmsis_gcc.h **** #ifndef   __UNALIGNED_UINT32        /* deprecated */
  71:Drivers/CMSIS/Include/cmsis_gcc.h ****   #pragma GCC diagnostic push
  72:Drivers/CMSIS/Include/cmsis_gcc.h ****   #pragma GCC diagnostic ignored "-Wpacked"
  73:Drivers/CMSIS/Include/cmsis_gcc.h ****   #pragma GCC diagnostic ignored "-Wattributes"
  74:Drivers/CMSIS/Include/cmsis_gcc.h ****   struct __attribute__((packed)) T_UINT32 { uint32_t v; };
  75:Drivers/CMSIS/Include/cmsis_gcc.h ****   #pragma GCC diagnostic pop
  76:Drivers/CMSIS/Include/cmsis_gcc.h ****   #define __UNALIGNED_UINT32(x)                  (((struct T_UINT32 *)(x))->v)
  77:Drivers/CMSIS/Include/cmsis_gcc.h **** #endif
  78:Drivers/CMSIS/Include/cmsis_gcc.h **** #ifndef   __UNALIGNED_UINT16_WRITE
  79:Drivers/CMSIS/Include/cmsis_gcc.h ****   #pragma GCC diagnostic push
  80:Drivers/CMSIS/Include/cmsis_gcc.h ****   #pragma GCC diagnostic ignored "-Wpacked"
  81:Drivers/CMSIS/Include/cmsis_gcc.h ****   #pragma GCC diagnostic ignored "-Wattributes"
  82:Drivers/CMSIS/Include/cmsis_gcc.h ****   __PACKED_STRUCT T_UINT16_WRITE { uint16_t v; };
  83:Drivers/CMSIS/Include/cmsis_gcc.h ****   #pragma GCC diagnostic pop
  84:Drivers/CMSIS/Include/cmsis_gcc.h ****   #define __UNALIGNED_UINT16_WRITE(addr, val)    (void)((((struct T_UINT16_WRITE *)(void *)(addr))-
  85:Drivers/CMSIS/Include/cmsis_gcc.h **** #endif
  86:Drivers/CMSIS/Include/cmsis_gcc.h **** #ifndef   __UNALIGNED_UINT16_READ
  87:Drivers/CMSIS/Include/cmsis_gcc.h ****   #pragma GCC diagnostic push
  88:Drivers/CMSIS/Include/cmsis_gcc.h ****   #pragma GCC diagnostic ignored "-Wpacked"
  89:Drivers/CMSIS/Include/cmsis_gcc.h ****   #pragma GCC diagnostic ignored "-Wattributes"
  90:Drivers/CMSIS/Include/cmsis_gcc.h ****   __PACKED_STRUCT T_UINT16_READ { uint16_t v; };
  91:Drivers/CMSIS/Include/cmsis_gcc.h ****   #pragma GCC diagnostic pop
  92:Drivers/CMSIS/Include/cmsis_gcc.h ****   #define __UNALIGNED_UINT16_READ(addr)          (((const struct T_UINT16_READ *)(const void *)(add
  93:Drivers/CMSIS/Include/cmsis_gcc.h **** #endif
  94:Drivers/CMSIS/Include/cmsis_gcc.h **** #ifndef   __UNALIGNED_UINT32_WRITE
  95:Drivers/CMSIS/Include/cmsis_gcc.h ****   #pragma GCC diagnostic push
  96:Drivers/CMSIS/Include/cmsis_gcc.h ****   #pragma GCC diagnostic ignored "-Wpacked"
  97:Drivers/CMSIS/Include/cmsis_gcc.h ****   #pragma GCC diagnostic ignored "-Wattributes"
  98:Drivers/CMSIS/Include/cmsis_gcc.h ****   __PACKED_STRUCT T_UINT32_WRITE { uint32_t v; };
  99:Drivers/CMSIS/Include/cmsis_gcc.h ****   #pragma GCC diagnostic pop
 100:Drivers/CMSIS/Include/cmsis_gcc.h ****   #define __UNALIGNED_UINT32_WRITE(addr, val)    (void)((((struct T_UINT32_WRITE *)(void *)(addr))-
 101:Drivers/CMSIS/Include/cmsis_gcc.h **** #endif
 102:Drivers/CMSIS/Include/cmsis_gcc.h **** #ifndef   __UNALIGNED_UINT32_READ
 103:Drivers/CMSIS/Include/cmsis_gcc.h ****   #pragma GCC diagnostic push
 104:Drivers/CMSIS/Include/cmsis_gcc.h ****   #pragma GCC diagnostic ignored "-Wpacked"
 105:Drivers/CMSIS/Include/cmsis_gcc.h ****   #pragma GCC diagnostic ignored "-Wattributes"
 106:Drivers/CMSIS/Include/cmsis_gcc.h ****   __PACKED_STRUCT T_UINT32_READ { uint32_t v; };
 107:Drivers/CMSIS/Include/cmsis_gcc.h ****   #pragma GCC diagnostic pop
 108:Drivers/CMSIS/Include/cmsis_gcc.h ****   #define __UNALIGNED_UINT32_READ(addr)          (((const struct T_UINT32_READ *)(const void *)(add
 109:Drivers/CMSIS/Include/cmsis_gcc.h **** #endif
 110:Drivers/CMSIS/Include/cmsis_gcc.h **** #ifndef   __ALIGNED
 111:Drivers/CMSIS/Include/cmsis_gcc.h ****   #define __ALIGNED(x)                           __attribute__((aligned(x)))
 112:Drivers/CMSIS/Include/cmsis_gcc.h **** #endif
 113:Drivers/CMSIS/Include/cmsis_gcc.h **** #ifndef   __RESTRICT
 114:Drivers/CMSIS/Include/cmsis_gcc.h ****   #define __RESTRICT                             __restrict
 115:Drivers/CMSIS/Include/cmsis_gcc.h **** #endif
ARM GAS  C:\Users\stryk\AppData\Local\Temp\cc9Kngvf.s 			page 26


 116:Drivers/CMSIS/Include/cmsis_gcc.h **** 
 117:Drivers/CMSIS/Include/cmsis_gcc.h **** 
 118:Drivers/CMSIS/Include/cmsis_gcc.h **** /* ###########################  Core Function Access  ########################### */
 119:Drivers/CMSIS/Include/cmsis_gcc.h **** /** \ingroup  CMSIS_Core_FunctionInterface
 120:Drivers/CMSIS/Include/cmsis_gcc.h ****     \defgroup CMSIS_Core_RegAccFunctions CMSIS Core Register Access Functions
 121:Drivers/CMSIS/Include/cmsis_gcc.h ****   @{
 122:Drivers/CMSIS/Include/cmsis_gcc.h ****  */
 123:Drivers/CMSIS/Include/cmsis_gcc.h **** 
 124:Drivers/CMSIS/Include/cmsis_gcc.h **** /**
 125:Drivers/CMSIS/Include/cmsis_gcc.h ****   \brief   Enable IRQ Interrupts
 126:Drivers/CMSIS/Include/cmsis_gcc.h ****   \details Enables IRQ interrupts by clearing the I-bit in the CPSR.
 127:Drivers/CMSIS/Include/cmsis_gcc.h ****            Can only be executed in Privileged modes.
 128:Drivers/CMSIS/Include/cmsis_gcc.h ****  */
 129:Drivers/CMSIS/Include/cmsis_gcc.h **** __STATIC_FORCEINLINE void __enable_irq(void)
 130:Drivers/CMSIS/Include/cmsis_gcc.h **** {
 131:Drivers/CMSIS/Include/cmsis_gcc.h ****   __ASM volatile ("cpsie i" : : : "memory");
 132:Drivers/CMSIS/Include/cmsis_gcc.h **** }
 133:Drivers/CMSIS/Include/cmsis_gcc.h **** 
 134:Drivers/CMSIS/Include/cmsis_gcc.h **** 
 135:Drivers/CMSIS/Include/cmsis_gcc.h **** /**
 136:Drivers/CMSIS/Include/cmsis_gcc.h ****   \brief   Disable IRQ Interrupts
 137:Drivers/CMSIS/Include/cmsis_gcc.h ****   \details Disables IRQ interrupts by setting the I-bit in the CPSR.
 138:Drivers/CMSIS/Include/cmsis_gcc.h ****            Can only be executed in Privileged modes.
 139:Drivers/CMSIS/Include/cmsis_gcc.h ****  */
 140:Drivers/CMSIS/Include/cmsis_gcc.h **** __STATIC_FORCEINLINE void __disable_irq(void)
 141:Drivers/CMSIS/Include/cmsis_gcc.h **** {
 142:Drivers/CMSIS/Include/cmsis_gcc.h ****   __ASM volatile ("cpsid i" : : : "memory");
 1009              		.loc 2 142 3
 1010              		.syntax unified
 1011              	@ 142 "Drivers/CMSIS/Include/cmsis_gcc.h" 1
 1012 0004 72B6     		cpsid i
 1013              	@ 0 "" 2
 143:Drivers/CMSIS/Include/cmsis_gcc.h **** }
 1014              		.loc 2 143 1
 1015              		.thumb
 1016              		.syntax unified
 1017 0006 00BF     		nop
 1018              	.L43:
 1019              	.LBE12:
 1020              	.LBE11:
 294:Core/Src/main.c ****   /* USER CODE BEGIN Error_Handler_Debug */
 295:Core/Src/main.c ****   /* User can add his own implementation to report the HAL error return state */
 296:Core/Src/main.c ****   __disable_irq();
 297:Core/Src/main.c ****   while (1)
 1021              		.loc 1 297 9 discriminator 1
 1022 0008 FEE7     		b	.L43
 1023              		.cfi_endproc
 1024              	.LFE226:
 1026              		.text
 1027              	.Letext0:
 1028              		.file 3 "c:\\arm-gcc\\tools\\arm-gnu-toolchain-11.3.rel1-mingw-w64-i686-arm-none-eabi\\arm-none-ea
 1029              		.file 4 "c:\\arm-gcc\\tools\\arm-gnu-toolchain-11.3.rel1-mingw-w64-i686-arm-none-eabi\\arm-none-ea
 1030              		.file 5 "Drivers/CMSIS/Device/ST/STM32F4xx/Include/stm32f411xe.h"
 1031              		.file 6 "Drivers/CMSIS/Device/ST/STM32F4xx/Include/stm32f4xx.h"
 1032              		.file 7 "c:\\arm-gcc\\tools\\arm-gnu-toolchain-11.3.rel1-mingw-w64-i686-arm-none-eabi\\lib\\gcc\\a
 1033              		.file 8 "Drivers/STM32F4xx_HAL_Driver/Inc/stm32f4xx_hal_def.h"
 1034              		.file 9 "Drivers/STM32F4xx_HAL_Driver/Inc/stm32f4xx_hal_rcc_ex.h"
ARM GAS  C:\Users\stryk\AppData\Local\Temp\cc9Kngvf.s 			page 27


 1035              		.file 10 "Drivers/STM32F4xx_HAL_Driver/Inc/stm32f4xx_hal_rcc.h"
 1036              		.file 11 "Drivers/STM32F4xx_HAL_Driver/Inc/stm32f4xx_hal_gpio.h"
 1037              		.file 12 "Drivers/STM32F4xx_HAL_Driver/Inc/stm32f4xx_hal_dma.h"
 1038              		.file 13 "Drivers/STM32F4xx_HAL_Driver/Inc/stm32f4xx_hal_adc.h"
 1039              		.file 14 "Drivers/STM32F4xx_HAL_Driver/Inc/stm32f4xx_hal_tim.h"
 1040              		.file 15 "Core/Inc/main.h"
 1041              		.file 16 "Drivers/STM32F4xx_HAL_Driver/Inc/stm32f4xx_hal_tim_ex.h"
 1042              		.file 17 "c:\\arm-gcc\\tools\\arm-gnu-toolchain-11.3.rel1-mingw-w64-i686-arm-none-eabi\\arm-none-e
 1043              		.file 18 "Drivers/STM32F4xx_HAL_Driver/Inc/stm32f4xx_hal.h"
 1044              		.file 19 "c:\\arm-gcc\\tools\\arm-gnu-toolchain-11.3.rel1-mingw-w64-i686-arm-none-eabi\\arm-none-e
 1045              		.file 20 "USB_DEVICE/App/usb_device.h"
ARM GAS  C:\Users\stryk\AppData\Local\Temp\cc9Kngvf.s 			page 28

